BL51 BANKED LINKER/LOCATER V6.22                                                        10/07/2012  15:56:25  PAGE 1


BL51 BANKED LINKER/LOCATER V6.22, INVOKED BY:
C:\KEIL\C51\BIN\BL51.EXE STARTUP.obj, SHT11TEST.obj TO SHT11TEST RAMSIZE (256)


MEMORY MODEL: SMALL WITH FLOATING POINT ARITHMETIC


INPUT MODULES INCLUDED:
  STARTUP.obj (?C_STARTUP)
  SHT11TEST.obj (SHT11TEST)
  C:\KEIL\C51\LIB\C51FPS.LIB (?C?FPADD)
  C:\KEIL\C51\LIB\C51FPS.LIB (?C?FPMUL)
  C:\KEIL\C51\LIB\C51FPS.LIB (?C?FPCMP)
  C:\KEIL\C51\LIB\C51FPS.LIB (?C?FCAST)
  C:\KEIL\C51\LIB\C51FPS.LIB (?C?CASTF)
  C:\KEIL\C51\LIB\C51FPS.LIB (?C?FPGETOPN)
  C:\KEIL\C51\LIB\C51S.LIB (?C?CLDPTR)
  C:\KEIL\C51\LIB\C51S.LIB (?C?CSTPTR)
  C:\KEIL\C51\LIB\C51S.LIB (?C?CSTOPTR)
  C:\KEIL\C51\LIB\C51S.LIB (?C?UIDIV)
  C:\KEIL\C51\LIB\C51S.LIB (?C?LNEG)
  C:\KEIL\C51\LIB\C51S.LIB (?C?SLCMP)
  C:\KEIL\C51\LIB\C51S.LIB (?C?LLDPTR)
  C:\KEIL\C51\LIB\C51S.LIB (?C?LSTPTR)
  C:\KEIL\C51\LIB\C51S.LIB (?C?LLDIDATA)
  C:\KEIL\C51\LIB\C51S.LIB (?C?LLDXDATA)
  C:\KEIL\C51\LIB\C51S.LIB (?C?LLDPDATA)
  C:\KEIL\C51\LIB\C51S.LIB (?C?LLDCODE)
  C:\KEIL\C51\LIB\C51S.LIB (?C?LSTIDATA)
  C:\KEIL\C51\LIB\C51S.LIB (?C?LSTXDATA)
  C:\KEIL\C51\LIB\C51S.LIB (?C?LSTPDATA)


LINK MAP OF MODULE:  SHT11TEST (?C_STARTUP)


            TYPE    BASE      LENGTH    RELOCATION   SEGMENT NAME
            -----------------------------------------------------

            * * * * * * *   D A T A   M E M O R Y   * * * * * * *
            REG     0000H     0008H     ABSOLUTE     "REG BANK 0"
                    0008H     0018H                  *** GAP ***
            BIT     0020H.0   0000H.1   UNIT         _BIT_GROUP_
                    0020H.1   0000H.7                *** GAP ***
            DATA    0021H     0049H     UNIT         _DATA_GROUP_
            IDATA   006AH     0001H     UNIT         ?STACK

            * * * * * * *   C O D E   M E M O R Y   * * * * * * *
            CODE    0000H     0003H     ABSOLUTE     
            CODE    0003H     0482H     UNIT         ?C?LIB_CODE
            CODE    0485H     01CDH     UNIT         ?PR?MAIN?SHT11TEST
            CODE    0652H     0193H     UNIT         ?PR?_CALC_STH10?SHT11TEST
            CODE    07E5H     0088H     UNIT         ?PR?_S_MEASURE?SHT11TEST
            CODE    086DH     0032H     UNIT         ?PR?_S_WRITE_BYTE?SHT11TEST
            CODE    089FH     0031H     UNIT         ?PR?_S_READ_BYTE?SHT11TEST
            CODE    08D0H     0024H     UNIT         ?PR?LCD_INITIAL?SHT11TEST
            CODE    08F4H     0020H     UNIT         ?PR?_DELAY?SHT11TEST
            CODE    0914H     001FH     UNIT         ?PR?_GOTOXY?SHT11TEST
BL51 BANKED LINKER/LOCATER V6.22                                                      10/07/2012  15:56:25  PAGE 2


            CODE    0933H     001BH     UNIT         ?CO?SHT11TEST
            CODE    094EH     0019H     UNIT         ?PR?S_TRANSSTART?SHT11TEST
            CODE    0967H     0017H     UNIT         ?PR?_PRINT?SHT11TEST
            CODE    097EH     0016H     UNIT         ?PR?LCD_WRITE?SHT11TEST
            CODE    0994H     0011H     UNIT         ?PR?S_CONNECTIONRESET?SHT11TEST
            CODE    09A5H     000EH     UNIT         ?PR?S_SOFTRESET?SHT11TEST
            CODE    09B3H     000DH     UNIT         ?PR?LCD_WAIT?SHT11TEST
            CODE    09C0H     000CH     UNIT         ?C_C51STARTUP
            CODE    09CCH     000AH     UNIT         ?PR?_LCD_SETDISPLAY?SHT11TEST
            CODE    09D6H     000AH     UNIT         ?PR?_LCD_SETINPUT?SHT11TEST



OVERLAY MAP OF MODULE:   SHT11TEST (?C_STARTUP)


SEGMENT                                    BIT_GROUP          DATA_GROUP 
  +--> CALLED SEGMENT                   START    LENGTH     START    LENGTH
---------------------------------------------------------------------------
?C_C51STARTUP                           -----    -----      -----    -----
  +--> ?PR?MAIN?SHT11TEST

?PR?MAIN?SHT11TEST                      -----    -----      0021H    001BH
  +--> ?PR?LCD_INITIAL?SHT11TEST
  +--> ?PR?_GOTOXY?SHT11TEST
  +--> ?CO?SHT11TEST
  +--> ?PR?_PRINT?SHT11TEST
  +--> ?PR?S_CONNECTIONRESET?SHT11TEST
  +--> ?PR?_S_MEASURE?SHT11TEST
  +--> ?PR?_CALC_STH10?SHT11TEST
  +--> ?PR?_DELAY?SHT11TEST

?PR?LCD_INITIAL?SHT11TEST               -----    -----      -----    -----
  +--> ?PR?LCD_WRITE?SHT11TEST
  +--> ?PR?_LCD_SETDISPLAY?SHT11TEST
  +--> ?PR?_LCD_SETINPUT?SHT11TEST

?PR?LCD_WRITE?SHT11TEST                 0020H.0  0000H.1    003CH    0001H
  +--> ?PR?LCD_WAIT?SHT11TEST

?PR?_LCD_SETDISPLAY?SHT11TEST           -----    -----      -----    -----
  +--> ?PR?LCD_WRITE?SHT11TEST

?PR?_LCD_SETINPUT?SHT11TEST             -----    -----      -----    -----
  +--> ?PR?LCD_WRITE?SHT11TEST

?PR?_GOTOXY?SHT11TEST                   -----    -----      -----    -----
  +--> ?PR?LCD_WRITE?SHT11TEST

?PR?_PRINT?SHT11TEST                    -----    -----      -----    -----
  +--> ?PR?LCD_WRITE?SHT11TEST

?PR?S_CONNECTIONRESET?SHT11TEST         -----    -----      -----    -----
  +--> ?PR?S_TRANSSTART?SHT11TEST

?PR?_S_MEASURE?SHT11TEST                -----    -----      003CH    0009H
  +--> ?PR?S_TRANSSTART?SHT11TEST
BL51 BANKED LINKER/LOCATER V6.22                                                      10/07/2012  15:56:25  PAGE 3


  +--> ?PR?_S_WRITE_BYTE?SHT11TEST
  +--> ?PR?_S_READ_BYTE?SHT11TEST

?PR?_CALC_STH10?SHT11TEST               -----    -----      003CH    002EH



SYMBOL TABLE OF MODULE:  SHT11TEST (?C_STARTUP)

  VALUE           TYPE          NAME
  ----------------------------------

  -------         MODULE        ?C_STARTUP
  C:09C0H         SEGMENT       ?C_C51STARTUP
  I:006AH         SEGMENT       ?STACK
  C:0000H         PUBLIC        ?C_STARTUP
  D:00E0H         SYMBOL        ACC
  D:00F0H         SYMBOL        B
  D:0083H         SYMBOL        DPH
  D:0082H         SYMBOL        DPL
  N:0000H         SYMBOL        IBPSTACK
  N:0100H         SYMBOL        IBPSTACKTOP
  N:0080H         SYMBOL        IDATALEN
  C:09C3H         SYMBOL        IDATALOOP
  N:0000H         SYMBOL        PBPSTACK
  N:0100H         SYMBOL        PBPSTACKTOP
  N:0000H         SYMBOL        PDATALEN
  N:0000H         SYMBOL        PDATASTART
  N:0000H         SYMBOL        PPAGE
  N:0000H         SYMBOL        PPAGEENABLE
  D:00A0H         SYMBOL        PPAGE_SFR
  D:0081H         SYMBOL        SP
  C:09C0H         SYMBOL        STARTUP1
  N:0000H         SYMBOL        XBPSTACK
  N:0000H         SYMBOL        XBPSTACKTOP
  N:0000H         SYMBOL        XDATALEN
  N:0000H         SYMBOL        XDATASTART
  C:0000H         LINE#         126
  C:09C0H         LINE#         133
  C:09C2H         LINE#         134
  C:09C3H         LINE#         135
  C:09C4H         LINE#         136
  C:09C6H         LINE#         185
  C:09C9H         LINE#         196
  -------         ENDMOD        ?C_STARTUP

  -------         MODULE        SHT11TEST
  C:0000H         SYMBOL        _ICE_DUMMY_
  D:0090H         PUBLIC        P1
  D:00A0H         PUBLIC        P2
  C:08D0H         PUBLIC        LCD_Initial
  D:00B0H         PUBLIC        P3
  C:089FH         PUBLIC        _s_read_byte
  D:00A8H         PUBLIC        IE
  C:0967H         PUBLIC        _Print
  C:08F4H         PUBLIC        _delay
  C:086DH         PUBLIC        _s_write_byte
BL51 BANKED LINKER/LOCATER V6.22                                                      10/07/2012  15:56:25  PAGE 4


  D:00B8H         PUBLIC        IP
  B:0090H.1       PUBLIC        DATA
  B:00A0H.0       PUBLIC        RS
  C:0485H         PUBLIC        main
  C:0652H         PUBLIC        _calc_sth10
  B:00A0H.1       PUBLIC        RW
  D:0080H         PUBLIC        DBPort
  C:094EH         PUBLIC        s_transstart
  C:0994H         PUBLIC        s_connectionreset
  D:0098H         PUBLIC        SCON
  D:0088H         PUBLIC        TCON
  C:09A5H         PUBLIC        s_softreset
  C:09CCH         PUBLIC        _LCD_SetDisplay
  C:097EH         PUBLIC        LCD_Write
  B:00A0H.2       PUBLIC        E
  C:07E5H         PUBLIC        _s_measure
  C:09B3H         PUBLIC        LCD_Wait
  C:0914H         PUBLIC        _GotoXY
  B:0090H.0       PUBLIC        SCK
  D:00C8H         PUBLIC        T2CON
  C:09D6H         PUBLIC        _LCD_SetInput
  D:00D0H         PUBLIC        PSW
  -------         PROC          _S_WRITE_BYTE
  D:0007H         SYMBOL        value
  -------         DO            
  D:0005H         SYMBOL        i
  D:0006H         SYMBOL        error
  -------         ENDDO         
  C:086DH         LINE#         56
  C:086DH         LINE#         57
  C:086DH         LINE#         58
  C:086FH         LINE#         59
  C:0877H         LINE#         60
  C:0877H         LINE#         61
  C:087FH         LINE#         62
  C:0881H         LINE#         63
  C:0883H         LINE#         64
  C:0886H         LINE#         65
  C:0888H         LINE#         66
  C:088EH         LINE#         67
  C:0890H         LINE#         68
  C:0892H         LINE#         69
  C:0896H         LINE#         70
  C:0899H         LINE#         71
  C:089BH         LINE#         72
  C:089DH         LINE#         73
  C:089EH         LINE#         74
  -------         ENDPROC       _S_WRITE_BYTE
  -------         PROC          _S_READ_BYTE
  D:0007H         SYMBOL        ack
  -------         DO            
  D:0005H         SYMBOL        i
  D:0006H         SYMBOL        val
  -------         ENDDO         
  C:089FH         LINE#         77
  C:089FH         LINE#         79
  C:089FH         LINE#         80
BL51 BANKED LINKER/LOCATER V6.22                                                      10/07/2012  15:56:25  PAGE 5


  C:08A1H         LINE#         81
  C:08A3H         LINE#         82
  C:08ABH         LINE#         83
  C:08ABH         LINE#         84
  C:08ADH         LINE#         85
  C:08B3H         LINE#         86
  C:08B5H         LINE#         87
  C:08BBH         LINE#         88
  C:08C1H         LINE#         89
  C:08C3H         LINE#         90
  C:08C6H         LINE#         91
  C:08C8H         LINE#         92
  C:08CBH         LINE#         93
  C:08CDH         LINE#         94
  C:08CFH         LINE#         95
  -------         ENDPROC       _S_READ_BYTE
  -------         PROC          S_TRANSSTART
  C:094EH         LINE#         98
  C:094EH         LINE#         104
  C:094EH         LINE#         105
  C:0952H         LINE#         106
  C:0953H         LINE#         107
  C:0955H         LINE#         108
  C:0956H         LINE#         109
  C:0958H         LINE#         110
  C:0959H         LINE#         111
  C:095BH         LINE#         112
  C:095EH         LINE#         113
  C:0960H         LINE#         114
  C:0961H         LINE#         115
  C:0963H         LINE#         116
  C:0964H         LINE#         117
  C:0966H         LINE#         118
  -------         ENDPROC       S_TRANSSTART
  -------         PROC          S_CONNECTIONRESET
  -------         DO            
  D:0007H         SYMBOL        i
  -------         ENDDO         
  C:0994H         LINE#         122
  C:0994H         LINE#         128
  C:0994H         LINE#         130
  C:0998H         LINE#         131
  C:099AH         LINE#         132
  C:099AH         LINE#         133
  C:099CH         LINE#         134
  C:099EH         LINE#         135
  C:09A2H         LINE#         136
  -------         ENDPROC       S_CONNECTIONRESET
  -------         PROC          S_SOFTRESET
  -------         DO            
  D:0004H         SYMBOL        error
  -------         ENDDO         
  C:09A5H         LINE#         141
  C:09A5H         LINE#         143
  C:09A5H         LINE#         144
  C:09A7H         LINE#         145
  C:09AAH         LINE#         146
BL51 BANKED LINKER/LOCATER V6.22                                                      10/07/2012  15:56:25  PAGE 6


  C:09B1H         LINE#         147
  C:09B2H         LINE#         148
  -------         ENDPROC       S_SOFTRESET
  -------         PROC          _S_MEASURE
  D:003CH         SYMBOL        p_value
  D:003FH         SYMBOL        p_checksum
  D:0042H         SYMBOL        mode
  -------         DO            
  D:0043H         SYMBOL        error
  D:0082H         SYMBOL        i
  -------         ENDDO         
  C:07E5H         LINE#         178
  C:07EBH         LINE#         180
  C:07EBH         LINE#         182
  C:07F0H         LINE#         185
  C:07F3H         LINE#         186
  C:07FBH         LINE#         187
  C:07FBH         LINE#         188
  C:07FFH         LINE#         189
  C:0813H         LINE#         190
  C:0813H         LINE#         191
  C:0813H         LINE#         192
  C:082FH         LINE#         193
  C:083AH         LINE#         194
  C:0849H         LINE#         195
  C:085BH         LINE#         196
  C:086AH         LINE#         197
  C:086CH         LINE#         198
  -------         ENDPROC       _S_MEASURE
  -------         PROC          _CALC_STH10
  D:003CH         SYMBOL        p_humidity
  D:003FH         SYMBOL        p_temperature
  -------         DO            
  D:0042H         SYMBOL        C1
  D:0046H         SYMBOL        C2
  D:004AH         SYMBOL        C3
  D:004EH         SYMBOL        T1
  D:0052H         SYMBOL        T2
  D:0056H         SYMBOL        rh
  D:005AH         SYMBOL        t
  D:005EH         SYMBOL        rh_lin
  D:0062H         SYMBOL        rh_true
  D:0066H         SYMBOL        t_C
  -------         ENDDO         
  C:0652H         LINE#         201
  C:0658H         LINE#         202
  C:0658H         LINE#         203
  C:0663H         LINE#         204
  C:066FH         LINE#         205
  C:067BH         LINE#         206
  C:0687H         LINE#         207
  C:0693H         LINE#         209
  C:069EH         LINE#         210
  C:06AFH         LINE#         215
  C:06D4H         LINE#         216
  C:072BH         LINE#         217
  C:0781H         LINE#         218
BL51 BANKED LINKER/LOCATER V6.22                                                      10/07/2012  15:56:25  PAGE 7


  C:07A2H         LINE#         219
  C:07C3H         LINE#         221
  C:07D4H         LINE#         222
  -------         ENDPROC       _CALC_STH10
  -------         PROC          LCD_WAIT
  C:09B3H         LINE#         239
  C:09B3H         LINE#         240
  C:09B3H         LINE#         241
  C:09B5H         LINE#         242
  C:09B8H         LINE#         243
  C:09BBH         LINE#         244
  C:09BDH         LINE#         245
  C:09BFH         LINE#         246
  -------         ENDPROC       LCD_WAIT
  -------         PROC          LCD_WRITE
  B:0020H.0       SYMBOL        style
  D:003CH         SYMBOL        input
  C:097EH         LINE#         252
  C:097EH         LINE#         253
  C:097EH         LINE#         254
  C:0980H         LINE#         255
  C:0984H         LINE#         256
  C:0987H         LINE#         257
  C:098BH         LINE#         258
  C:098EH         LINE#         259
  C:0991H         LINE#         260
  -------         ENDPROC       LCD_WRITE
  -------         PROC          _LCD_SETDISPLAY
  D:0007H         SYMBOL        DisplayMode
  C:09CCH         LINE#         273
  C:09CCH         LINE#         274
  C:09CCH         LINE#         275
  -------         ENDPROC       _LCD_SETDISPLAY
  -------         PROC          _LCD_SETINPUT
  D:0007H         SYMBOL        InputMode
  C:09D6H         LINE#         285
  C:09D6H         LINE#         286
  C:09D6H         LINE#         287
  -------         ENDPROC       _LCD_SETINPUT
  -------         PROC          LCD_INITIAL
  C:08D0H         LINE#         291
  C:08D0H         LINE#         292
  C:08D0H         LINE#         293
  C:08D2H         LINE#         294
  C:08DAH         LINE#         295
  C:08E2H         LINE#         296
  C:08E7H         LINE#         297
  C:08EFH         LINE#         298
  -------         ENDPROC       LCD_INITIAL
  -------         PROC          _GOTOXY
  D:0006H         SYMBOL        x
  D:0005H         SYMBOL        y
  C:0914H         LINE#         302
  C:0916H         LINE#         303
  C:0916H         LINE#         304
  C:0919H         LINE#         305
  C:0923H         LINE#         306
BL51 BANKED LINKER/LOCATER V6.22                                                      10/07/2012  15:56:25  PAGE 8


  C:0926H         LINE#         307
  C:0932H         LINE#         308
  -------         ENDPROC       _GOTOXY
  -------         PROC          _PRINT
  D:0001H         SYMBOL        str
  C:0967H         LINE#         311
  C:0967H         LINE#         312
  C:0967H         LINE#         313
  C:096DH         LINE#         314
  C:096DH         LINE#         315
  C:0974H         LINE#         316
  C:097BH         LINE#         317
  C:097DH         LINE#         318
  -------         ENDPROC       _PRINT
  -------         PROC          _DELAY
  D:0006H         SYMBOL        z
  -------         DO            
  D:0006H         SYMBOL        x
  D:0004H         SYMBOL        y
  -------         ENDDO         
  C:08F4H         LINE#         323
  C:08F4H         LINE#         324
  C:08F4H         LINE#         326
  C:08FFH         LINE#         327
  C:0913H         LINE#         328
  -------         ENDPROC       _DELAY
  -------         PROC          MAIN
  -------         DO            
  D:0021H         SYMBOL        temp
  D:0023H         SYMBOL        humi
  D:0025H         SYMBOL        humi_val
  D:0029H         SYMBOL        temp_val
  D:002DH         SYMBOL        error
  D:002EH         SYMBOL        checksum
  D:002FH         SYMBOL        TEMP1
  D:0036H         SYMBOL        HUMI1
  -------         ENDDO         
  C:0485H         LINE#         333
  C:0485H         LINE#         334
  C:0485H         LINE#         344
  C:0488H         LINE#         345
  C:048EH         LINE#         346
  C:0497H         LINE#         347
  C:049DH         LINE#         348
  C:04A4H         LINE#         349
  C:04A7H         LINE#         350
  C:04A7H         LINE#         351
  C:04A7H         LINE#         352
  C:04AAH         LINE#         353
  C:04C1H         LINE#         354
  C:04DBH         LINE#         355
  C:04E3H         LINE#         357
  C:04E3H         LINE#         358
  C:04F3H         LINE#         359
  C:0503H         LINE#         360
  C:0515H         LINE#         362
  C:052EH         LINE#         363
BL51 BANKED LINKER/LOCATER V6.22                                                      10/07/2012  15:56:25  PAGE 9


  C:0547H         LINE#         364
  C:054EH         LINE#         365
  C:055EH         LINE#         366
  C:0564H         LINE#         367
  C:0581H         LINE#         368
  C:058DH         LINE#         369
  C:05AAH         LINE#         370
  C:05ADH         LINE#         371
  C:05BDH         LINE#         372
  C:05C0H         LINE#         373
  C:05C9H         LINE#         374
  C:05D0H         LINE#         375
  C:05E0H         LINE#         376
  C:05E6H         LINE#         377
  C:0603H         LINE#         378
  C:060FH         LINE#         379
  C:062CH         LINE#         380
  C:062FH         LINE#         381
  C:063FH         LINE#         382
  C:0648H         LINE#         383
  C:0648H         LINE#         384
  C:064FH         LINE#         385
  -------         ENDPROC       MAIN
  -------         ENDMOD        SHT11TEST

  -------         MODULE        ?C?FPADD
  C:000AH         PUBLIC        ?C?FPADD
  C:0006H         PUBLIC        ?C?FPSUB
  -------         ENDMOD        ?C?FPADD

  -------         MODULE        ?C?FPMUL
  C:00FBH         PUBLIC        ?C?FPMUL
  -------         ENDMOD        ?C?FPMUL

  -------         MODULE        ?C?FPCMP
  C:0203H         PUBLIC        ?C?FPCMP
  C:0201H         PUBLIC        ?C?FPCMP3
  -------         ENDMOD        ?C?FPCMP

  -------         MODULE        ?C?FCAST
  C:0278H         PUBLIC        ?C?FCASTC
  C:0273H         PUBLIC        ?C?FCASTI
  C:026EH         PUBLIC        ?C?FCASTL
  -------         ENDMOD        ?C?FCAST

  -------         MODULE        ?C?CASTF
  C:02ACH         PUBLIC        ?C?CASTF
  -------         ENDMOD        ?C?CASTF

  -------         MODULE        ?C?CLDPTR
  C:032DH         PUBLIC        ?C?CLDPTR
  -------         ENDMOD        ?C?CLDPTR

  -------         MODULE        ?C?CSTPTR
  C:0346H         PUBLIC        ?C?CSTPTR
  -------         ENDMOD        ?C?CSTPTR

BL51 BANKED LINKER/LOCATER V6.22                                                      10/07/2012  15:56:25  PAGE 10


  -------         MODULE        ?C?CSTOPTR
  C:0358H         PUBLIC        ?C?CSTOPTR
  -------         ENDMOD        ?C?CSTOPTR

  -------         MODULE        ?C?UIDIV
  C:037AH         PUBLIC        ?C?UIDIV
  -------         ENDMOD        ?C?UIDIV

  -------         MODULE        ?C?LNEG
  C:03CFH         PUBLIC        ?C?LNEG
  -------         ENDMOD        ?C?LNEG

  -------         MODULE        ?C?SLCMP
  C:03DDH         PUBLIC        ?C?SLCMP
  -------         ENDMOD        ?C?SLCMP

  -------         MODULE        ?C?LLDPTR
  C:03F3H         PUBLIC        ?C?LLDPTR
  -------         ENDMOD        ?C?LLDPTR

  -------         MODULE        ?C?LSTPTR
  C:0413H         PUBLIC        ?C?LSTPTR
  -------         ENDMOD        ?C?LSTPTR

  -------         MODULE        ?C?LLDIDATA
  C:042DH         PUBLIC        ?C?LLDIDATA
  -------         ENDMOD        ?C?LLDIDATA

  -------         MODULE        ?C?LLDXDATA
  C:0439H         PUBLIC        ?C?LLDXDATA
  -------         ENDMOD        ?C?LLDXDATA

  -------         MODULE        ?C?LLDPDATA
  C:0445H         PUBLIC        ?C?LLDPDATA
  -------         ENDMOD        ?C?LLDPDATA

  -------         MODULE        ?C?LLDCODE
  C:0451H         PUBLIC        ?C?LLDCODE
  -------         ENDMOD        ?C?LLDCODE

  -------         MODULE        ?C?LSTIDATA
  C:0461H         PUBLIC        ?C?LSTIDATA
  -------         ENDMOD        ?C?LSTIDATA

  -------         MODULE        ?C?LSTXDATA
  C:046DH         PUBLIC        ?C?LSTXDATA
  -------         ENDMOD        ?C?LSTXDATA

  -------         MODULE        ?C?LSTPDATA
  C:0479H         PUBLIC        ?C?LSTPDATA
  -------         ENDMOD        ?C?LSTPDATA

*** WARNING L16: UNCALLED SEGMENT, IGNORED FOR OVERLAY PROCESS
    SEGMENT: ?PR?S_SOFTRESET?SHT11TEST

Program Size: data=82.1 xdata=0 code=2528
LINK/LOCATE RUN COMPLETE.  1 WARNING(S),  0 ERROR(S)
